target datalayout = "e-m:e-p270:32:32-p271:32:32-p272:64:64-i64:64-i128:128-f80:128-n8:16:32:64-S128"
target triple = "x86_64-pc-linux-gnu"

%struct.filter_prov_globals_st = type { ptr, ptr, [10 x %struct.anon], i32, i32, i64, i32 }
%struct.anon = type { i32, [6 x %struct.ossl_algorithm_st] }
%struct.ossl_algorithm_st = type { ptr, ptr, ptr, ptr }

@ourglobals = internal global %struct.filter_prov_globals_st zeroinitializer, align 8
@.str.1 = private unnamed_addr constant [29 x i8] c"../openssl/test/filterprov.c\00", align 1
@.str.2 = private unnamed_addr constant [2 x i8] c":\00", align 1

; Function Attrs: nounwind uwtable
define internal ptr @get_globals() #0 {
  ret ptr @ourglobals
}

; Function Attrs: nounwind uwtable
define dso_local i32 @filter_provider_set_filter(i32 noundef %0, ptr noundef %1) #0 {
  %3 = alloca i32, align 4
  %4 = alloca i32, align 4
  %5 = alloca ptr, align 8
  %6 = alloca i32, align 4
  %7 = alloca i32, align 4
  %8 = alloca i32, align 4
  %9 = alloca i32, align 4
  %10 = alloca ptr, align 8
  %11 = alloca i64, align 8
  %12 = alloca ptr, align 8
  %13 = alloca ptr, align 8
  %14 = alloca ptr, align 8
  %15 = alloca ptr, align 8
  %16 = alloca ptr, align 8
  %17 = alloca ptr, align 8
  %18 = alloca i32, align 4
  store i32 %0, ptr %4, align 4, !tbaa !28
  store ptr %1, ptr %5, align 8, !tbaa !29
  call void @llvm.lifetime.start.p0(i64 4, ptr %6) #7
  store i32 0, ptr %6, align 4, !tbaa !28
  call void @llvm.lifetime.start.p0(i64 4, ptr %7) #7
  store i32 0, ptr %7, align 4, !tbaa !28
  call void @llvm.lifetime.start.p0(i64 4, ptr %8) #7
  store i32 0, ptr %8, align 4, !tbaa !28
  call void @llvm.lifetime.start.p0(i64 4, ptr %9) #7
  store i32 0, ptr %9, align 4, !tbaa !28
  call void @llvm.lifetime.start.p0(i64 8, ptr %10) #7
  %19 = call ptr @get_globals()
  store ptr %19, ptr %10, align 8, !tbaa !31
  call void @llvm.lifetime.start.p0(i64 8, ptr %11) #7
  call void @llvm.lifetime.start.p0(i64 8, ptr %12) #7
  %20 = load ptr, ptr %5, align 8, !tbaa !29
  %21 = call noalias ptr @CRYPTO_strdup(ptr noundef %20, ptr noundef @.str.1, i32 noundef 209)
  store ptr %21, ptr %12, align 8, !tbaa !29
  call void @llvm.lifetime.start.p0(i64 8, ptr %13) #7
  call void @llvm.lifetime.start.p0(i64 8, ptr %14) #7
  call void @llvm.lifetime.start.p0(i64 8, ptr %15) #7
  %22 = load ptr, ptr %10, align 8, !tbaa !31
  %23 = getelementptr inbounds nuw %struct.filter_prov_globals_st, ptr %22, i32 0, i32 1
  %24 = load ptr, ptr %23, align 8, !tbaa !24
  %25 = load i32, ptr %4, align 4, !tbaa !28
  %26 = call ptr @OSSL_PROVIDER_query_operation(ptr noundef %24, i32 noundef %25, ptr noundef %6)
  store ptr %26, ptr %15, align 8, !tbaa !33
  call void @llvm.lifetime.start.p0(i64 8, ptr %16) #7
  %27 = load ptr, ptr %12, align 8, !tbaa !29
  %28 = icmp eq ptr %27, null
  br i1 %28, label %29, label %30

29:                                               ; preds = %2
  br label %156

30:                                               ; preds = %2
  %31 = load ptr, ptr %15, align 8, !tbaa !33
  %32 = icmp eq ptr %31, null
  br i1 %32, label %33, label %34

33:                                               ; preds = %30
  br label %156

34:                                               ; preds = %30
  %35 = load ptr, ptr %10, align 8, !tbaa !31
  %36 = getelementptr inbounds nuw %struct.filter_prov_globals_st, ptr %35, i32 0, i32 3
  %37 = load i32, ptr %36, align 8, !tbaa !35
  %38 = icmp sge i32 %37, 10
  br i1 %38, label %39, label %40

39:                                               ; preds = %34
  br label %156

40:                                               ; preds = %34
  %41 = load ptr, ptr %12, align 8, !tbaa !29
  store ptr %41, ptr %13, align 8, !tbaa !29
  br label %42

42:                                               ; preds = %137, %40
  %43 = load i32, ptr %8, align 4, !tbaa !28
  %44 = icmp ne i32 %43, 0
  %45 = xor i1 %44, true
  br i1 %45, label %46, label %139

46:                                               ; preds = %42
  %47 = load ptr, ptr %13, align 8, !tbaa !29
  %48 = call ptr @strstr(ptr noundef %47, ptr noundef @.str.2) #8
  store ptr %48, ptr %14, align 8, !tbaa !29
  %49 = load ptr, ptr %14, align 8, !tbaa !29
  %50 = icmp ne ptr %49, null
  br i1 %50, label %51, label %53

51:                                               ; preds = %46
  %52 = load ptr, ptr %14, align 8, !tbaa !29
  store i8 0, ptr %52, align 1, !tbaa !36
  br label %54

53:                                               ; preds = %46
  store i32 1, ptr %8, align 4, !tbaa !28
  br label %54

54:                                               ; preds = %53, %51
  %55 = load ptr, ptr %13, align 8, !tbaa !29
  %56 = call i64 @strlen(ptr noundef %55) #8
  store i64 %56, ptr %11, align 8, !tbaa !37
  %57 = load ptr, ptr %15, align 8, !tbaa !33
  store ptr %57, ptr %16, align 8, !tbaa !33
  br label %58

58:                                               ; preds = %120, %54
  %59 = load ptr, ptr %16, align 8, !tbaa !33
  %60 = getelementptr inbounds nuw %struct.ossl_algorithm_st, ptr %59, i32 0, i32 0
  %61 = load ptr, ptr %60, align 8, !tbaa !38
  %62 = icmp ne ptr %61, null
  br i1 %62, label %63, label %123

63:                                               ; preds = %58
  call void @llvm.lifetime.start.p0(i64 8, ptr %17) #7
  %64 = load ptr, ptr %16, align 8, !tbaa !33
  %65 = getelementptr inbounds nuw %struct.ossl_algorithm_st, ptr %64, i32 0, i32 0
  %66 = load ptr, ptr %65, align 8, !tbaa !38
  %67 = load ptr, ptr %13, align 8, !tbaa !29
  %68 = call ptr @strstr(ptr noundef %66, ptr noundef %67) #8
  store ptr %68, ptr %17, align 8, !tbaa !29
  %69 = load ptr, ptr %17, align 8, !tbaa !29
  %70 = icmp eq ptr %69, null
  br i1 %70, label %71, label %72

71:                                               ; preds = %63
  store i32 8, ptr %18, align 4
  br label %118

72:                                               ; preds = %63
  %73 = load ptr, ptr %17, align 8, !tbaa !29
  %74 = load i64, ptr %11, align 8, !tbaa !37
  %75 = getelementptr inbounds nuw i8, ptr %73, i64 %74
  %76 = load i8, ptr %75, align 1, !tbaa !36
  %77 = sext i8 %76 to i32
  %78 = icmp ne i32 %77, 0
  br i1 %78, label %79, label %87

79:                                               ; preds = %72
  %80 = load ptr, ptr %17, align 8, !tbaa !29
  %81 = load i64, ptr %11, align 8, !tbaa !37
  %82 = getelementptr inbounds nuw i8, ptr %80, i64 %81
  %83 = load i8, ptr %82, align 1, !tbaa !36
  %84 = sext i8 %83 to i32
  %85 = icmp ne i32 %84, 58
  br i1 %85, label %86, label %87

86:                                               ; preds = %79
  store i32 8, ptr %18, align 4
  br label %118

87:                                               ; preds = %79, %72
  %88 = load ptr, ptr %17, align 8, !tbaa !29
  %89 = load ptr, ptr %16, align 8, !tbaa !33
  %90 = getelementptr inbounds nuw %struct.ossl_algorithm_st, ptr %89, i32 0, i32 0
  %91 = load ptr, ptr %90, align 8, !tbaa !38
  %92 = icmp ne ptr %88, %91
  br i1 %92, label %93, label %100

93:                                               ; preds = %87
  %94 = load ptr, ptr %17, align 8, !tbaa !29
  %95 = getelementptr inbounds i8, ptr %94, i64 -1
  %96 = load i8, ptr %95, align 1, !tbaa !36
  %97 = sext i8 %96 to i32
  %98 = icmp ne i32 %97, 58
  br i1 %98, label %99, label %100

99:                                               ; preds = %93
  store i32 8, ptr %18, align 4
  br label %118

100:                                              ; preds = %93, %87
  %101 = load i32, ptr %7, align 4, !tbaa !28
  %102 = icmp sge i32 %101, 5
  br i1 %102, label %103, label %104

103:                                              ; preds = %100
  store i32 2, ptr %18, align 4
  br label %118

104:                                              ; preds = %100
  %105 = load ptr, ptr %10, align 8, !tbaa !31
  %106 = getelementptr inbounds nuw %struct.filter_prov_globals_st, ptr %105, i32 0, i32 2
  %107 = load ptr, ptr %10, align 8, !tbaa !31
  %108 = getelementptr inbounds nuw %struct.filter_prov_globals_st, ptr %107, i32 0, i32 3
  %109 = load i32, ptr %108, align 8, !tbaa !35
  %110 = sext i32 %109 to i64
  %111 = getelementptr inbounds [10 x %struct.anon], ptr %106, i64 0, i64 %110
  %112 = getelementptr inbounds nuw %struct.anon, ptr %111, i32 0, i32 1
  %113 = load i32, ptr %7, align 4, !tbaa !28
  %114 = add nsw i32 %113, 1
  store i32 %114, ptr %7, align 4, !tbaa !28
  %115 = sext i32 %113 to i64
  %116 = getelementptr inbounds [6 x %struct.ossl_algorithm_st], ptr %112, i64 0, i64 %115
  %117 = load ptr, ptr %16, align 8, !tbaa !33
  call void @llvm.memcpy.p0.p0.i64(ptr align 8 %116, ptr align 8 %117, i64 32, i1 false), !tbaa.struct !40
  store i32 6, ptr %18, align 4
  br label %118

118:                                              ; preds = %103, %104, %99, %86, %71
  call void @llvm.lifetime.end.p0(i64 8, ptr %17) #7
  %119 = load i32, ptr %18, align 4
  switch i32 %119, label %164 [
    i32 8, label %120
    i32 6, label %123
    i32 2, label %156
  ]

120:                                              ; preds = %118
  %121 = load ptr, ptr %16, align 8, !tbaa !33
  %122 = getelementptr inbounds nuw %struct.ossl_algorithm_st, ptr %121, i32 1
  store ptr %122, ptr %16, align 8, !tbaa !33
  br label %58, !llvm.loop !41

123:                                              ; preds = %118, %58
  %124 = load ptr, ptr %16, align 8, !tbaa !33
  %125 = getelementptr inbounds nuw %struct.ossl_algorithm_st, ptr %124, i32 0, i32 0
  %126 = load ptr, ptr %125, align 8, !tbaa !38
  %127 = icmp eq ptr %126, null
  br i1 %127, label %128, label %129

128:                                              ; preds = %123
  br label %156

129:                                              ; preds = %123
  br label %130

130:                                              ; preds = %129
  %131 = load ptr, ptr %14, align 8, !tbaa !29
  %132 = icmp eq ptr %131, null
  br i1 %132, label %133, label %134

133:                                              ; preds = %130
  br label %137

134:                                              ; preds = %130
  %135 = load ptr, ptr %14, align 8, !tbaa !29
  %136 = getelementptr inbounds i8, ptr %135, i64 1
  br label %137

137:                                              ; preds = %134, %133
  %138 = phi ptr [ null, %133 ], [ %136, %134 ]
  store ptr %138, ptr %13, align 8, !tbaa !29
  br label %42, !llvm.loop !42

139:                                              ; preds = %42
  %140 = load i32, ptr %4, align 4, !tbaa !28
  %141 = load ptr, ptr %10, align 8, !tbaa !31
  %142 = getelementptr inbounds nuw %struct.filter_prov_globals_st, ptr %141, i32 0, i32 2
  %143 = load ptr, ptr %10, align 8, !tbaa !31
  %144 = getelementptr inbounds nuw %struct.filter_prov_globals_st, ptr %143, i32 0, i32 3
  %145 = load i32, ptr %144, align 8, !tbaa !35
  %146 = sext i32 %145 to i64
  %147 = getelementptr inbounds [10 x %struct.anon], ptr %142, i64 0, i64 %146
  %148 = getelementptr inbounds nuw %struct.anon, ptr %147, i32 0, i32 0
  store i32 %140, ptr %148, align 8, !tbaa !43
  %149 = load i32, ptr %6, align 4, !tbaa !28
  %150 = load ptr, ptr %10, align 8, !tbaa !31
  %151 = getelementptr inbounds nuw %struct.filter_prov_globals_st, ptr %150, i32 0, i32 4
  store i32 %149, ptr %151, align 4, !tbaa !45
  %152 = load ptr, ptr %10, align 8, !tbaa !31
  %153 = getelementptr inbounds nuw %struct.filter_prov_globals_st, ptr %152, i32 0, i32 3
  %154 = load i32, ptr %153, align 8, !tbaa !35
  %155 = add nsw i32 %154, 1
  store i32 %155, ptr %153, align 8, !tbaa !35
  store i32 1, ptr %9, align 4, !tbaa !28
  br label %156

156:                                              ; preds = %139, %118, %128, %39, %33, %29
  %157 = load ptr, ptr %10, align 8, !tbaa !31
  %158 = getelementptr inbounds nuw %struct.filter_prov_globals_st, ptr %157, i32 0, i32 1
  %159 = load ptr, ptr %158, align 8, !tbaa !24
  %160 = load i32, ptr %4, align 4, !tbaa !28
  %161 = load ptr, ptr %15, align 8, !tbaa !33
  call void @OSSL_PROVIDER_unquery_operation(ptr noundef %159, i32 noundef %160, ptr noundef %161)
  %162 = load ptr, ptr %12, align 8, !tbaa !29
  call void @CRYPTO_free(ptr noundef %162, ptr noundef @.str.1, i32 noundef 264)
  %163 = load i32, ptr %9, align 4, !tbaa !28
  store i32 %163, ptr %3, align 4
  store i32 1, ptr %18, align 4
  br label %164

164:                                              ; preds = %156, %118
  call void @llvm.lifetime.end.p0(i64 8, ptr %16) #7
  call void @llvm.lifetime.end.p0(i64 8, ptr %15) #7
  call void @llvm.lifetime.end.p0(i64 8, ptr %14) #7
  call void @llvm.lifetime.end.p0(i64 8, ptr %13) #7
  call void @llvm.lifetime.end.p0(i64 8, ptr %12) #7
  call void @llvm.lifetime.end.p0(i64 8, ptr %11) #7
  call void @llvm.lifetime.end.p0(i64 8, ptr %10) #7
  call void @llvm.lifetime.end.p0(i64 4, ptr %9) #7
  call void @llvm.lifetime.end.p0(i64 4, ptr %8) #7
  call void @llvm.lifetime.end.p0(i64 4, ptr %7) #7
  call void @llvm.lifetime.end.p0(i64 4, ptr %6) #7
  %165 = load i32, ptr %3, align 4
  ret i32 %165
}