; Function Attrs: nounwind uwtable
define dso_local range(i32 0, 2) i32 @filter_provider_set_filter(i32 noundef %0, ptr noundef %1) local_unnamed_addr #0 {
  %3 = alloca i32, align 4
  call void @llvm.lifetime.start.p0(i64 4, ptr nonnull %3) #7
  store i32 0, ptr %3, align 4, !tbaa !22
  %4 = tail call noalias ptr @CRYPTO_strdup(ptr noundef %1, ptr noundef nonnull @.str.1, i32 noundef 209) #7
  %5 = load ptr, ptr getelementptr inbounds nuw (i8, ptr @ourglobals, i64 8), align 8, !tbaa !18
  %6 = call ptr @OSSL_PROVIDER_query_operation(ptr noundef %5, i32 noundef %0, ptr noundef nonnull %3) #7
  %7 = icmp eq ptr %4, null
  %8 = icmp eq ptr %6, null
  %or.cond = select i1 %7, i1 true, i1 %8
  %9 = load i32, ptr getelementptr inbounds nuw (i8, ptr @ourglobals, i64 2016), align 8
  %10 = icmp sgt i32 %9, 9
  %or.cond65 = select i1 %or.cond, i1 true, i1 %10
  br i1 %or.cond65, label %.thread72, label %.preheader

.preheader:                                       ; preds = %2, %34
  %indvars.iv = phi i64 [ %indvars.iv.next, %34 ], [ 0, %2 ]
  %.05079 = phi ptr [ %35, %34 ], [ %4, %2 ]
  %strchr = call ptr @strchr(ptr noundef nonnull dereferenceable(1) %.05079, i32 58)
  %.not58.not = icmp eq ptr %strchr, null
  br i1 %.not58.not, label %12, label %11

11:                                               ; preds = %.preheader
  store i8 0, ptr %strchr, align 1, !tbaa !23
  br label %12

12:                                               ; preds = %.preheader, %11
  %13 = call i64 @strlen(ptr noundef nonnull dereferenceable(1) %.05079) #8
  %14 = load ptr, ptr %6, align 8, !tbaa !24
  %.not5976 = icmp eq ptr %14, null
  br i1 %.not5976, label %.thread72, label %.lr.ph

.lr.ph:                                           ; preds = %12, %26
  %15 = phi ptr [ %28, %26 ], [ %14, %12 ]
  %.04677 = phi ptr [ %27, %26 ], [ %6, %12 ]
  %16 = call ptr @strstr(ptr noundef nonnull dereferenceable(1) %15, ptr noundef nonnull dereferenceable(1) %.05079) #8
  %17 = icmp eq ptr %16, null
  br i1 %17, label %26, label %18

18:                                               ; preds = %.lr.ph
  %19 = getelementptr inbounds nuw i8, ptr %16, i64 %13
  %20 = load i8, ptr %19, align 1, !tbaa !23
  switch i8 %20, label %26 [
    i8 0, label %21
    i8 58, label %21
  ]

21:                                               ; preds = %18, %18
  %.not62 = icmp eq ptr %16, %15
  br i1 %.not62, label %25, label %22

22:                                               ; preds = %21
  %23 = getelementptr inbounds i8, ptr %16, i64 -1
  %24 = load i8, ptr %23, align 1, !tbaa !23
  %.not63 = icmp eq i8 %24, 58
  br i1 %.not63, label %25, label %26

25:                                               ; preds = %22, %21
  %exitcond = icmp eq i64 %indvars.iv, 5
  br i1 %exitcond, label %.thread72, label %29

26:                                               ; preds = %.lr.ph, %18, %22
  %27 = getelementptr inbounds nuw i8, ptr %.04677, i64 32
  %28 = load ptr, ptr %27, align 8, !tbaa !24
  %.not59 = icmp eq ptr %28, null
  br i1 %.not59, label %.thread72, label %.lr.ph, !llvm.loop !27

29:                                               ; preds = %25
  %30 = load i32, ptr getelementptr inbounds nuw (i8, ptr @ourglobals, i64 2016), align 8, !tbaa !28
  %31 = sext i32 %30 to i64
  %.idx = mul nsw i64 %31, 200
  %gep = getelementptr i8, ptr getelementptr inbounds nuw (i8, ptr @ourglobals, i64 24), i64 %.idx
  %32 = getelementptr inbounds nuw [6 x %struct.ossl_algorithm_st], ptr %gep, i64 0, i64 %indvars.iv
  call void @llvm.memcpy.p0.p0.i64(ptr noundef nonnull align 8 dereferenceable(32) %32, ptr noundef nonnull align 8 dereferenceable(32) %.04677, i64 32, i1 false), !tbaa.struct !29
  %.pr = load ptr, ptr %.04677, align 8, !tbaa !24
  %33 = icmp eq ptr %.pr, null
  br i1 %33, label %.thread72, label %34

34:                                               ; preds = %29
  %indvars.iv.next = add nuw nsw i64 %indvars.iv, 1
  %35 = getelementptr inbounds nuw i8, ptr %strchr, i64 1
  br i1 %.not58.not, label %36, label %.preheader, !llvm.loop !31

36:                                               ; preds = %34
  %37 = load i32, ptr getelementptr inbounds nuw (i8, ptr @ourglobals, i64 2016), align 8, !tbaa !28
  %38 = sext i32 %37 to i64
  %39 = getelementptr inbounds [10 x %struct.anon], ptr getelementptr inbounds nuw (i8, ptr @ourglobals, i64 16), i64 0, i64 %38
  store i32 %0, ptr %39, align 8, !tbaa !32
  %40 = load i32, ptr %3, align 4, !tbaa !22
  store i32 %40, ptr getelementptr inbounds nuw (i8, ptr @ourglobals, i64 2020), align 4, !tbaa !34
  %41 = add nsw i32 %37, 1
  store i32 %41, ptr getelementptr inbounds nuw (i8, ptr @ourglobals, i64 2016), align 8, !tbaa !28
  br label %.thread72

.thread72:                                        ; preds = %29, %25, %12, %26, %36, %2
  %.051 = phi i32 [ 0, %2 ], [ 1, %36 ], [ 0, %26 ], [ 0, %12 ], [ 0, %25 ], [ 0, %29 ]
  %42 = load ptr, ptr getelementptr inbounds nuw (i8, ptr @ourglobals, i64 8), align 8, !tbaa !18
  call void @OSSL_PROVIDER_unquery_operation(ptr noundef %42, i32 noundef %0, ptr noundef %6) #7
  call void @CRYPTO_free(ptr noundef %4, ptr noundef nonnull @.str.1, i32 noundef 264) #7
  call void @llvm.lifetime.end.p0(i64 4, ptr nonnull %3) #7
  ret i32 %.051
}